target datalayout = "e-m:e-p270:32:32-p271:32:32-p272:64:64-i64:64-i128:128-f80:128-n8:16:32:64-S128"
target triple = "x86_64-pc-linux-gnu"

%struct._zval_struct = type { %union._zend_value, %union.anon, %union.anon.2 }
%union._zend_value = type { i64 }
%union.anon = type { i32 }
%union.anon.2 = type { i32 }
%struct._zend_array = type { %struct._zend_refcounted_h, %union.anon.4, i32, %union.anon.6, i32, i32, i32, i32, i64, ptr }
%struct._zend_refcounted_h = type { i32, %union.anon.3 }
%union.anon.3 = type { i32 }
%union.anon.4 = type { i32 }
%union.anon.6 = type { ptr }
%struct._zend_reference = type { %struct._zend_refcounted_h, %struct._zval_struct, %union.zend_property_info_source_list }
%union.zend_property_info_source_list = type { ptr }
%struct.anon.0 = type { i8, i8, %union.anon.1 }
%union.anon.1 = type { i16 }

@.str = private unnamed_addr constant [19 x i8] c"Recursion detected\00", align 1

; Function Attrs: alwaysinline nounwind uwtable
define internal zeroext i8 @zval_get_type(ptr noundef %0) #5 {
  %2 = alloca ptr, align 8
  store ptr %0, ptr %2, align 8, !tbaa !13
  %3 = load ptr, ptr %2, align 8, !tbaa !13
  %4 = getelementptr inbounds nuw %struct._zval_struct, ptr %3, i32 0, i32 1
  %5 = getelementptr inbounds nuw %struct.anon.0, ptr %4, i32 0, i32 0
  %6 = load i8, ptr %5, align 8, !tbaa !17
  ret i8 %6
}

; Function Attrs: alwaysinline nounwind uwtable
define internal i32 @zend_hash_num_elements(ptr noundef %0) #5 {
  %2 = alloca ptr, align 8
  store ptr %0, ptr %2, align 8, !tbaa !24
  %3 = load ptr, ptr %2, align 8, !tbaa !24
  %4 = getelementptr inbounds nuw %struct._zend_array, ptr %3, i32 0, i32 5
  %5 = load i32, ptr %4, align 4, !tbaa !39
  ret i32 %5
}

; Function Attrs: alwaysinline nounwind uwtable
define internal i32 @zval_gc_flags(i32 noundef %0) #5 {
  %2 = alloca i32, align 4
  store i32 %0, ptr %2, align 4, !tbaa !4
  %3 = load i32, ptr %2, align 4, !tbaa !4
  %4 = lshr i32 %3, 0
  %5 = and i32 %4, 1008
  ret i32 %5
}

; Function Attrs: nounwind uwtable
define dso_local i64 @php_count_recursive(ptr noundef %0) #0 {
  %2 = alloca i64, align 8
  %3 = alloca ptr, align 8
  %4 = alloca i64, align 8
  %5 = alloca ptr, align 8
  %6 = alloca i32, align 4
  %7 = alloca ptr, align 8
  %8 = alloca i32, align 4
  %9 = alloca i64, align 8
  %10 = alloca ptr, align 8
  store ptr %0, ptr %3, align 8, !tbaa !24
  call void @llvm.lifetime.start.p0(i64 8, ptr %4) #17
  store i64 0, ptr %4, align 8, !tbaa !15
  call void @llvm.lifetime.start.p0(i64 8, ptr %5) #17
  %11 = load ptr, ptr %3, align 8, !tbaa !24
  %12 = getelementptr inbounds nuw %struct._zend_array, ptr %11, i32 0, i32 0
  %13 = getelementptr inbounds nuw %struct._zend_refcounted_h, ptr %12, i32 0, i32 1
  %14 = load i32, ptr %13, align 4, !tbaa !17
  %15 = call i32 @zval_gc_flags(i32 noundef %14)
  %16 = and i32 %15, 64
  %17 = icmp ne i32 %16, 0
  br i1 %17, label %39, label %18

18:                                               ; preds = %1
  %19 = load ptr, ptr %3, align 8, !tbaa !24
  %20 = getelementptr inbounds nuw %struct._zend_array, ptr %19, i32 0, i32 0
  %21 = getelementptr inbounds nuw %struct._zend_refcounted_h, ptr %20, i32 0, i32 1
  %22 = load i32, ptr %21, align 4, !tbaa !17
  %23 = call i32 @zval_gc_flags(i32 noundef %22)
  %24 = and i32 %23, 32
  %25 = icmp ne i32 %24, 0
  br i1 %25, label %26, label %27

26:                                               ; preds = %18
  call void (ptr, i32, ptr, ...) @php_error_docref(ptr noundef null, i32 noundef 2, ptr noundef @.str)
  store i64 0, ptr %2, align 8
  store i32 1, ptr %6, align 4
  br label %140

27:                                               ; preds = %18
  br label %28

28:                                               ; preds = %27
  br label %29

29:                                               ; preds = %28
  %30 = load ptr, ptr %3, align 8, !tbaa !24
  %31 = getelementptr inbounds nuw %struct._zend_array, ptr %30, i32 0, i32 0
  %32 = getelementptr inbounds nuw %struct._zend_refcounted_h, ptr %31, i32 0, i32 1
  %33 = load i32, ptr %32, align 4, !tbaa !17
  %34 = or i32 %33, 32
  store i32 %34, ptr %32, align 4, !tbaa !17
  br label %35

35:                                               ; preds = %29
  br label %36

36:                                               ; preds = %35
  br label %37

37:                                               ; preds = %36
  br label %38

38:                                               ; preds = %37
  br label %39

39:                                               ; preds = %38, %1
  %40 = load ptr, ptr %3, align 8, !tbaa !24
  %41 = call i32 @zend_hash_num_elements(ptr noundef %40)
  %42 = zext i32 %41 to i64
  store i64 %42, ptr %4, align 8, !tbaa !15
  br label %43

43:                                               ; preds = %39
  call void @llvm.lifetime.start.p0(i64 8, ptr %7) #17
  %44 = load ptr, ptr %3, align 8, !tbaa !24
  store ptr %44, ptr %7, align 8, !tbaa !24
  call void @llvm.lifetime.start.p0(i64 4, ptr %8) #17
  %45 = load ptr, ptr %7, align 8, !tbaa !24
  %46 = getelementptr inbounds nuw %struct._zend_array, ptr %45, i32 0, i32 4
  %47 = load i32, ptr %46, align 8, !tbaa !37
  store i32 %47, ptr %8, align 4, !tbaa !4
  call void @llvm.lifetime.start.p0(i64 8, ptr %9) #17
  %48 = load ptr, ptr %7, align 8, !tbaa !24
  %49 = getelementptr inbounds nuw %struct._zend_array, ptr %48, i32 0, i32 1
  %50 = load i32, ptr %49, align 8, !tbaa !17
  %51 = xor i32 %50, -1
  %52 = and i32 %51, 4
  %53 = zext i32 %52 to i64
  %54 = mul i64 %53, 4
  %55 = add i64 16, %54
  store i64 %55, ptr %9, align 8, !tbaa !15
  call void @llvm.lifetime.start.p0(i64 8, ptr %10) #17
  %56 = load ptr, ptr %7, align 8, !tbaa !24
  %57 = getelementptr inbounds nuw %struct._zend_array, ptr %56, i32 0, i32 3
  %58 = load ptr, ptr %57, align 8, !tbaa !17
  store ptr %58, ptr %10, align 8, !tbaa !13
  br label %59

59:                                               ; preds = %107, %43
  %60 = load i32, ptr %8, align 4, !tbaa !4
  %61 = icmp ugt i32 %60, 0
  br i1 %61, label %62, label %113

62:                                               ; preds = %59
  %63 = load ptr, ptr %10, align 8, !tbaa !13
  %64 = call zeroext i8 @zval_get_type(ptr noundef %63)
  %65 = zext i8 %64 to i32
  %66 = icmp eq i32 %65, 0
  %67 = xor i1 %66, true
  %68 = xor i1 %67, true
  %69 = zext i1 %68 to i32
  %70 = sext i32 %69 to i64
  %71 = call i64 @llvm.expect.i64(i64 %70, i64 0)
  %72 = icmp ne i64 %71, 0
  br i1 %72, label %73, label %74

73:                                               ; preds = %62
  br label %107

74:                                               ; preds = %62
  %75 = load ptr, ptr %10, align 8, !tbaa !13
  store ptr %75, ptr %5, align 8, !tbaa !13
  br label %76

76:                                               ; preds = %74
  %77 = load ptr, ptr %5, align 8, !tbaa !13
  %78 = call zeroext i8 @zval_get_type(ptr noundef %77)
  %79 = zext i8 %78 to i32
  %80 = icmp eq i32 %79, 10
  %81 = xor i1 %80, true
  %82 = xor i1 %81, true
  %83 = zext i1 %82 to i32
  %84 = sext i32 %83 to i64
  %85 = call i64 @llvm.expect.i64(i64 %84, i64 0)
  %86 = icmp ne i64 %85, 0
  br i1 %86, label %87, label %92

87:                                               ; preds = %76
  %88 = load ptr, ptr %5, align 8, !tbaa !13
  %89 = getelementptr inbounds nuw %struct._zval_struct, ptr %88, i32 0, i32 0
  %90 = load ptr, ptr %89, align 8, !tbaa !17
  %91 = getelementptr inbounds nuw %struct._zend_reference, ptr %90, i32 0, i32 1
  store ptr %91, ptr %5, align 8, !tbaa !13
  br label %92

92:                                               ; preds = %87, %76
  br label %93

93:                                               ; preds = %92
  br label %94

94:                                               ; preds = %93
  %95 = load ptr, ptr %5, align 8, !tbaa !13
  %96 = call zeroext i8 @zval_get_type(ptr noundef %95)
  %97 = zext i8 %96 to i32
  %98 = icmp eq i32 %97, 7
  br i1 %98, label %99, label %106

99:                                               ; preds = %94
  %100 = load ptr, ptr %5, align 8, !tbaa !13
  %101 = getelementptr inbounds nuw %struct._zval_struct, ptr %100, i32 0, i32 0
  %102 = load ptr, ptr %101, align 8, !tbaa !17
  %103 = call i64 @php_count_recursive(ptr noundef %102)
  %104 = load i64, ptr %4, align 8, !tbaa !15
  %105 = add nsw i64 %104, %103
  store i64 %105, ptr %4, align 8, !tbaa !15
  br label %106

106:                                              ; preds = %99, %94
  br label %107

107:                                              ; preds = %106, %73
  %108 = load ptr, ptr %10, align 8, !tbaa !13
  %109 = load i64, ptr %9, align 8, !tbaa !15
  %110 = getelementptr inbounds nuw i8, ptr %108, i64 %109
  store ptr %110, ptr %10, align 8, !tbaa !13
  %111 = load i32, ptr %8, align 4, !tbaa !4
  %112 = add i32 %111, -1
  store i32 %112, ptr %8, align 4, !tbaa !4
  br label %59

113:                                              ; preds = %59
  call void @llvm.lifetime.end.p0(i64 8, ptr %10) #17
  call void @llvm.lifetime.end.p0(i64 8, ptr %9) #17
  call void @llvm.lifetime.end.p0(i64 4, ptr %8) #17
  call void @llvm.lifetime.end.p0(i64 8, ptr %7) #17
  br label %114

114:                                              ; preds = %113
  br label %115

115:                                              ; preds = %114
  br label %116

116:                                              ; preds = %115
  %117 = load ptr, ptr %3, align 8, !tbaa !24
  %118 = getelementptr inbounds nuw %struct._zend_array, ptr %117, i32 0, i32 0
  %119 = getelementptr inbounds nuw %struct._zend_refcounted_h, ptr %118, i32 0, i32 1
  %120 = load i32, ptr %119, align 4, !tbaa !17
  %121 = call i32 @zval_gc_flags(i32 noundef %120)
  %122 = and i32 %121, 64
  %123 = icmp ne i32 %122, 0
  br i1 %123, label %136, label %124

124:                                              ; preds = %116
  br label %125

125:                                              ; preds = %124
  br label %126

126:                                              ; preds = %125
  %127 = load ptr, ptr %3, align 8, !tbaa !24
  %128 = getelementptr inbounds nuw %struct._zend_array, ptr %127, i32 0, i32 0
  %129 = getelementptr inbounds nuw %struct._zend_refcounted_h, ptr %128, i32 0, i32 1
  %130 = load i32, ptr %129, align 4, !tbaa !17
  %131 = and i32 %130, -33
  store i32 %131, ptr %129, align 4, !tbaa !17
  br label %132

132:                                              ; preds = %126
  br label %133

133:                                              ; preds = %132
  br label %134

134:                                              ; preds = %133
  br label %135

135:                                              ; preds = %134
  br label %136

136:                                              ; preds = %135, %116
  br label %137

137:                                              ; preds = %136
  br label %138

138:                                              ; preds = %137
  %139 = load i64, ptr %4, align 8, !tbaa !15
  store i64 %139, ptr %2, align 8
  store i32 1, ptr %6, align 4
  br label %140

140:                                              ; preds = %138, %26
  call void @llvm.lifetime.end.p0(i64 8, ptr %5) #17
  call void @llvm.lifetime.end.p0(i64 8, ptr %4) #17
  %141 = load i64, ptr %2, align 8
  ret i64 %141
}