; Function Attrs: nounwind uwtable
define dso_local i64 @php_count_recursive(ptr noundef captures(none) %0) local_unnamed_addr #2 {
  %2 = getelementptr inbounds nuw i8, ptr %0, i64 4
  %3 = load i32, ptr %2, align 4, !tbaa !8
  %4 = and i32 %3, 64
  %.not = icmp eq i32 %4, 0
  br i1 %.not, label %5, label %10

5:                                                ; preds = %1
  %6 = and i32 %3, 32
  %.not26 = icmp eq i32 %6, 0
  br i1 %.not26, label %8, label %7

7:                                                ; preds = %5
  tail call void (ptr, i32, ptr, ...) @php_error_docref(ptr noundef null, i32 noundef 2, ptr noundef nonnull @.str) #21
  br label %46

8:                                                ; preds = %5
  %9 = or disjoint i32 %3, 32
  store i32 %9, ptr %2, align 4, !tbaa !8
  br label %10

10:                                               ; preds = %8, %1
  %11 = phi i32 [ %9, %8 ], [ %3, %1 ]
  %12 = getelementptr inbounds nuw i8, ptr %0, i64 28
  %13 = load i32, ptr %12, align 4, !tbaa !16
  %14 = zext i32 %13 to i64
  %15 = getelementptr inbounds nuw i8, ptr %0, i64 24
  %16 = load i32, ptr %15, align 8, !tbaa !19
  %.not2729 = icmp eq i32 %16, 0
  br i1 %.not2729, label %._crit_edge, label %.lr.ph

.lr.ph:                                           ; preds = %10
  %17 = getelementptr inbounds nuw i8, ptr %0, i64 16
  %18 = load ptr, ptr %17, align 8, !tbaa !8
  %19 = getelementptr inbounds nuw i8, ptr %0, i64 8
  %20 = load i32, ptr %19, align 8, !tbaa !8
  %21 = shl i32 %20, 2
  %22 = and i32 %21, 16
  %23 = xor i32 %22, 16
  %24 = zext nneg i32 %23 to i64
  br label %25

25:                                               ; preds = %.lr.ph, %38
  %.032 = phi ptr [ %18, %.lr.ph ], [ %40, %38 ]
  %.02331 = phi i32 [ %16, %.lr.ph ], [ %41, %38 ]
  %.02430 = phi i64 [ %14, %.lr.ph ], [ %.1, %38 ]
  %26 = getelementptr inbounds nuw i8, ptr %.032, i64 8
  %27 = load i8, ptr %26, align 8, !tbaa !8
  switch i8 %27, label %31 [
    i8 0, label %38
    i8 10, label %28
  ], !prof !20

28:                                               ; preds = %25
  %29 = load ptr, ptr %.032, align 8, !tbaa !8
  %30 = getelementptr inbounds nuw i8, ptr %29, i64 8
  %.phi.trans.insert = getelementptr inbounds nuw i8, ptr %29, i64 16
  %.pre = load i8, ptr %.phi.trans.insert, align 8, !tbaa !8
  br label %31

31:                                               ; preds = %25, %28
  %32 = phi i8 [ %.pre, %28 ], [ %27, %25 ]
  %.025 = phi ptr [ %30, %28 ], [ %.032, %25 ]
  %33 = icmp eq i8 %32, 7
  br i1 %33, label %34, label %38

34:                                               ; preds = %31
  %35 = load ptr, ptr %.025, align 8, !tbaa !8
  %36 = tail call i64 @php_count_recursive(ptr noundef %35)
  %37 = add nsw i64 %36, %.02430
  br label %38

38:                                               ; preds = %25, %31, %34
  %.1 = phi i64 [ %.02430, %25 ], [ %37, %34 ], [ %.02430, %31 ]
  %39 = getelementptr inbounds nuw i8, ptr %.032, i64 %24
  %40 = getelementptr inbounds nuw i8, ptr %39, i64 16
  %41 = add i32 %.02331, -1
  %.not27 = icmp eq i32 %41, 0
  br i1 %.not27, label %._crit_edge.loopexit, label %25

._crit_edge.loopexit:                             ; preds = %38
  %.pre33 = load i32, ptr %2, align 4, !tbaa !8
  br label %._crit_edge

._crit_edge:                                      ; preds = %._crit_edge.loopexit, %10
  %42 = phi i32 [ %11, %10 ], [ %.pre33, %._crit_edge.loopexit ]
  %.024.lcssa = phi i64 [ %14, %10 ], [ %.1, %._crit_edge.loopexit ]
  %43 = and i32 %42, 64
  %.not28 = icmp eq i32 %43, 0
  br i1 %.not28, label %44, label %46

44:                                               ; preds = %._crit_edge
  %45 = and i32 %42, -97
  store i32 %45, ptr %2, align 4, !tbaa !8
  br label %46

46:                                               ; preds = %._crit_edge, %44, %7
  %.022 = phi i64 [ 0, %7 ], [ %.024.lcssa, %44 ], [ %.024.lcssa, %._crit_edge ]
  ret i64 %.022
}